target datalayout = "e-m:e-p270:32:32-p271:32:32-p272:64:64-i64:64-i128:128-f80:128-n8:16:32:64-S128"
target triple = "x86_64-pc-linux-gnu"

%struct.JSValue = type { %union.JSValueUnion, i64 }
%union.JSValueUnion = type { double }

; Function Attrs: nounwind uwtable
define internal i64 @js_get_errno(i64 noundef %0) #0 {
  %2 = alloca i64, align 8
  store i64 %0, ptr %2, align 8
  %3 = load i64, ptr %2, align 8
  %4 = icmp eq i64 %3, -1
  br i1 %4, label %5, label %10

5:                                                ; preds = %1
  %6 = call ptr @__errno_location() #10
  %7 = load i32, ptr %6, align 4
  %8 = sub i32 0, %7
  %9 = sext i32 %8 to i64
  store i64 %9, ptr %2, align 8
  br label %10

10:                                               ; preds = %5, %1
  %11 = load i64, ptr %2, align 8
  ret i64 %11
}

; Function Attrs: nounwind uwtable
define internal ptr @JS_ToCString(ptr noundef %0, i64 %1, i64 %2) #0 {
  %4 = alloca %struct.JSValue, align 8
  %5 = alloca ptr, align 8
  %6 = getelementptr inbounds { i64, i64 }, ptr %4, i32 0, i32 0
  store i64 %1, ptr %6, align 8
  %7 = getelementptr inbounds { i64, i64 }, ptr %4, i32 0, i32 1
  store i64 %2, ptr %7, align 8
  store ptr %0, ptr %5, align 8
  %8 = load ptr, ptr %5, align 8
  %9 = getelementptr inbounds { i64, i64 }, ptr %4, i32 0, i32 0
  %10 = load i64, ptr %9, align 8
  %11 = getelementptr inbounds { i64, i64 }, ptr %4, i32 0, i32 1
  %12 = load i64, ptr %11, align 8
  %13 = call ptr @JS_ToCStringLen2(ptr noundef %8, ptr noundef null, i64 %10, i64 %12, i32 noundef 0)
  ret ptr %13
}

; Function Attrs: nounwind uwtable
define internal { i64, i64 } @js_os_chdir(ptr noundef %0, i64 %1, i64 %2, i32 noundef %3, ptr noundef %4) #0 {
  %6 = alloca %struct.JSValue, align 8
  %7 = alloca ptr, align 8
  %8 = alloca i32, align 4
  %9 = alloca %struct.JSValue, align 8
  %10 = alloca %struct.JSValue, align 8
  %11 = alloca ptr, align 8
  %12 = alloca i32, align 4
  %13 = alloca ptr, align 8
  %14 = alloca ptr, align 8
  %15 = alloca i32, align 4
  %16 = getelementptr inbounds { i64, i64 }, ptr %10, i32 0, i32 0
  store i64 %1, ptr %16, align 8
  %17 = getelementptr inbounds { i64, i64 }, ptr %10, i32 0, i32 1
  store i64 %2, ptr %17, align 8
  store ptr %0, ptr %11, align 8
  store i32 %3, ptr %12, align 4
  store ptr %4, ptr %13, align 8
  %18 = load ptr, ptr %11, align 8
  %19 = load ptr, ptr %13, align 8
  %20 = getelementptr %struct.JSValue, ptr %19, i64 0
  %21 = getelementptr inbounds { i64, i64 }, ptr %20, i32 0, i32 0
  %22 = load i64, ptr %21, align 8
  %23 = getelementptr inbounds { i64, i64 }, ptr %20, i32 0, i32 1
  %24 = load i64, ptr %23, align 8
  %25 = call ptr @JS_ToCString(ptr noundef %18, i64 %22, i64 %24)
  store ptr %25, ptr %14, align 8
  %26 = load ptr, ptr %14, align 8
  %27 = icmp ne ptr %26, null
  br i1 %27, label %31, label %28

28:                                               ; preds = %5
  %29 = getelementptr inbounds %struct.JSValue, ptr %9, i32 0, i32 0
  store i32 0, ptr %29, align 8
  %30 = getelementptr inbounds %struct.JSValue, ptr %9, i32 0, i32 1
  store i64 6, ptr %30, align 8
  br label %48

31:                                               ; preds = %5
  %32 = load ptr, ptr %14, align 8
  %33 = call i32 @chdir(ptr noundef %32) #12
  %34 = sext i32 %33 to i64
  %35 = call i64 @js_get_errno(i64 noundef %34)
  %36 = trunc i64 %35 to i32
  store i32 %36, ptr %15, align 4
  %37 = load ptr, ptr %11, align 8
  %38 = load ptr, ptr %14, align 8
  call void @JS_FreeCString(ptr noundef %37, ptr noundef %38)
  %39 = load ptr, ptr %11, align 8
  %40 = load i32, ptr %15, align 4
  store ptr %39, ptr %7, align 8
  store i32 %40, ptr %8, align 4
  %41 = load i32, ptr %8, align 4
  store i32 %41, ptr %6, align 8
  %42 = getelementptr inbounds %struct.JSValue, ptr %6, i32 0, i32 1
  store i64 0, ptr %42, align 8
  %43 = load { i64, i64 }, ptr %6, align 8
  %44 = getelementptr inbounds { i64, i64 }, ptr %9, i32 0, i32 0
  %45 = extractvalue { i64, i64 } %43, 0
  store i64 %45, ptr %44, align 8
  %46 = getelementptr inbounds { i64, i64 }, ptr %9, i32 0, i32 1
  %47 = extractvalue { i64, i64 } %43, 1
  store i64 %47, ptr %46, align 8
  br label %48

48:                                               ; preds = %31, %28
  %49 = load { i64, i64 }, ptr %9, align 8
  ret { i64, i64 } %49
}