; Function Attrs: nounwind uwtable
define internal { i64, i64 } @js_os_chdir(ptr noundef %0, i64 %1, i64 %2, i32 %3, ptr nocapture noundef readonly %4) #0 {
  %6 = load i64, ptr %4, align 8
  %7 = getelementptr inbounds i8, ptr %4, i64 8
  %8 = load i64, ptr %7, align 8
  %9 = tail call ptr @JS_ToCStringLen2(ptr noundef %0, ptr noundef null, i64 %6, i64 %8, i32 noundef 0) #29
  %.not = icmp eq ptr %9, null
  br i1 %.not, label %17, label %10

10:                                               ; preds = %5
  %11 = tail call i32 @chdir(ptr noundef nonnull %9) #29
  %12 = icmp eq i32 %11, -1
  br i1 %12, label %13, label %js_get_errno.exit

13:                                               ; preds = %10
  %14 = tail call ptr @__errno_location() #28
  %15 = load i32, ptr %14, align 4
  %16 = sub i32 0, %15
  br label %js_get_errno.exit

js_get_errno.exit:                                ; preds = %10, %13
  %.0.i.in = phi i32 [ %16, %13 ], [ %11, %10 ]
  %.0.i = zext i32 %.0.i.in to i64
  tail call void @JS_FreeCString(ptr noundef %0, ptr noundef nonnull %9) #29
  br label %17

17:                                               ; preds = %5, %js_get_errno.exit
  %.sroa.07.0 = phi i64 [ %.0.i, %js_get_errno.exit ], [ 0, %5 ]
  %.sroa.3.sroa.2.0 = phi i64 [ 0, %js_get_errno.exit ], [ 6, %5 ]
  %.fca.0.insert = insertvalue { i64, i64 } poison, i64 %.sroa.07.0, 0
  %.fca.1.insert = insertvalue { i64, i64 } %.fca.0.insert, i64 %.sroa.3.sroa.2.0, 1
  ret { i64, i64 } %.fca.1.insert
}